; ModuleID = '30/577.c'
source_filename = "30/577.c"
target datalayout = "e-m:e-p270:32:32-p271:32:32-p272:64:64-i64:64-f80:128-n8:16:32:64-S128"
target triple = "x86_64-pc-linux-gnu"

@.str = private unnamed_addr constant [7 x i8] c"%d%d%d\00", align 1
@.str.1 = private unnamed_addr constant [3 x i8] c"%d\00", align 1

; Function Attrs: noinline nounwind uwtable
define dso_local i32 @main() #0 {
  %1 = alloca i32, align 4
  %2 = alloca i32, align 4
  %3 = alloca i32, align 4
  %4 = alloca i32, align 4
  store i32 0, i32* %1, align 4
  store i32 0, i32* %4, align 4
  %5 = call i32 (i8*, ...) @__isoc99_scanf(i8* getelementptr inbounds ([7 x i8], [7 x i8]* @.str, i64 0, i64 0), i32* %2, i32* %3, i32* %4)
  store i32 1, i32* %3, align 4
  br label %6

6:                                                ; preds = %32, %0
  %7 = load i32, i32* %3, align 4
  %8 = load i32, i32* %2, align 4
  %9 = icmp sle i32 %7, %8
  br i1 %9, label %10, label %35

10:                                               ; preds = %6
  %11 = load i32, i32* %3, align 4
  %12 = srem i32 %11, 7
  %13 = icmp ne i32 %12, 0
  br i1 %13, label %14, label %31

14:                                               ; preds = %10
  %15 = load i32, i32* %3, align 4
  %16 = load i32, i32* %3, align 4
  %17 = sdiv i32 %16, 10
  %18 = mul nsw i32 %17, 10
  %19 = sub nsw i32 %15, %18
  %20 = icmp ne i32 %19, 7
  br i1 %20, label %21, label %31

21:                                               ; preds = %14
  %22 = load i32, i32* %3, align 4
  %23 = sdiv i32 %22, 10
  %24 = icmp ne i32 %23, 7
  br i1 %24, label %25, label %31

25:                                               ; preds = %21
  %26 = load i32, i32* %4, align 4
  %27 = load i32, i32* %3, align 4
  %28 = load i32, i32* %3, align 4
  %29 = mul nsw i32 %27, %28
  %30 = add nsw i32 %26, %29
  store i32 %30, i32* %4, align 4
  br label %31

31:                                               ; preds = %25, %21, %14, %10
  br label %32

32:                                               ; preds = %31
  %33 = load i32, i32* %3, align 4
  %34 = add nsw i32 %33, 1
  store i32 %34, i32* %3, align 4
  br label %6

35:                                               ; preds = %6
  %36 = load i32, i32* %4, align 4
  %37 = call i32 (i8*, ...) @printf(i8* getelementptr inbounds ([3 x i8], [3 x i8]* @.str.1, i64 0, i64 0), i32 %36)
  ret i32 0
}

declare dso_local i32 @__isoc99_scanf(i8*, ...) #1

declare dso_local i32 @printf(i8*, ...) #1


!llvm.module.flags = !{!0}
!llvm.ident = !{!1}

!0 = !{i32 1, !"wchar_size", i32 4}
!1 = !{!"clang version 10.0.0-4ubuntu1 "}
